target datalayout = "e-m:e-p270:32:32-p271:32:32-p272:64:64-i64:64-i128:128-f80:128-n8:16:32:64-S128"
target triple = "x86_64-pc-linux-gnu"

; Function Attrs: mustprogress nounwind uwtable
define hidden noundef i64 @_ZN2os8pd_writeEiPKvm(i32 noundef %0, ptr noundef %1, i64 noundef %2) #1 align 2 {
  %4 = alloca i32, align 4
  %5 = alloca ptr, align 8
  %6 = alloca i64, align 8
  %7 = alloca i64, align 8
  store i32 %0, ptr %4, align 4
  store ptr %1, ptr %5, align 8
  store i64 %2, ptr %6, align 8
  br label %8

8:                                                ; preds = %21, %3
  %9 = load i32, ptr %4, align 4
  %10 = load ptr, ptr %5, align 8
  %11 = load i64, ptr %6, align 8
  %12 = call i64 @write(i32 noundef %9, ptr noundef %10, i64 noundef %11)
  store i64 %12, ptr %7, align 8
  br label %13

13:                                               ; preds = %8
  %14 = load i64, ptr %7, align 8
  %15 = trunc i64 %14 to i32
  %16 = icmp eq i32 %15, -1
  br i1 %16, label %17, label %21

17:                                               ; preds = %13
  %18 = call ptr @__errno_location() #14
  %19 = load i32, ptr %18, align 4
  %20 = icmp eq i32 %19, 4
  br label %21

21:                                               ; preds = %17, %13
  %22 = phi i1 [ false, %13 ], [ %20, %17 ]
  br i1 %22, label %8, label %23, !llvm.loop !16

23:                                               ; preds = %21
  %24 = load i64, ptr %7, align 8
  ret i64 %24
}