; Function Attrs: mustprogress nofree nounwind uwtable
define hidden noundef i64 @_ZN2os8pd_writeEiPKvm(i32 noundef %0, ptr nocapture noundef readonly %1, i64 noundef %2) local_unnamed_addr #11 align 2 {
  br label %4

4:                                                ; preds = %8, %3
  %5 = tail call i64 @write(i32 noundef %0, ptr noundef %1, i64 noundef %2) #25
  %6 = and i64 %5, 4294967295
  %7 = icmp eq i64 %6, 4294967295
  br i1 %7, label %8, label %.critedge

8:                                                ; preds = %4
  %9 = tail call ptr @__errno_location() #26
  %10 = load i32, ptr %9, align 4
  %11 = icmp eq i32 %10, 4
  br i1 %11, label %4, label %.critedge, !llvm.loop !15

.critedge:                                        ; preds = %4, %8
  ret i64 %5
}